; Function Attrs: mustprogress nounwind uwtable
define hidden noundef nonnull align 8 dereferenceable(36) ptr @_ZN4llvhlsERNS_11raw_ostreamERKN6hermes8RegisterE(ptr noundef nonnull returned align 8 dereferenceable(36) %OS, ptr nocapture noundef nonnull readonly align 4 dereferenceable(4) %reg) local_unnamed_addr #0 {
entry:
  %0 = load i32, ptr %reg, align 4
  %cmp.i.not = icmp eq i32 %0, -1
  %OutBufEnd.i5.i = getelementptr inbounds i8, ptr %OS, i64 16
  %1 = load ptr, ptr %OutBufEnd.i5.i, align 8
  %OutBufCur.i6.i = getelementptr inbounds i8, ptr %OS, i64 24
  %2 = load ptr, ptr %OutBufCur.i6.i, align 8
  %sub.ptr.lhs.cast.i7.i = ptrtoint ptr %1 to i64
  %sub.ptr.rhs.cast.i8.i = ptrtoint ptr %2 to i64
  %sub.ptr.sub.i9.i = sub i64 %sub.ptr.lhs.cast.i7.i, %sub.ptr.rhs.cast.i8.i
  br i1 %cmp.i.not, label %if.then, label %if.else

if.then:                                          ; preds = %entry
  %cmp.i.i = icmp ult i64 %sub.ptr.sub.i9.i, 4
  br i1 %cmp.i.i, label %if.then.i.i, label %if.then4.i.i

if.then.i.i:                                      ; preds = %if.then
  %call3.i.i = tail call noundef nonnull align 8 dereferenceable(36) ptr @_ZN4llvh11raw_ostream5writeEPKcm(ptr noundef nonnull align 8 dereferenceable(36) %OS, ptr noundef nonnull @.str, i64 noundef 4) #18
  br label %if.end

if.then4.i.i:                                     ; preds = %if.then
  store i32 1819047246, ptr %2, align 1
  %3 = load ptr, ptr %OutBufCur.i6.i, align 8
  %add.ptr.i.i = getelementptr inbounds i8, ptr %3, i64 4
  store ptr %add.ptr.i.i, ptr %OutBufCur.i6.i, align 8
  br label %if.end

if.else:                                          ; preds = %entry
  %cmp.i.i10 = icmp ult i64 %sub.ptr.sub.i9.i, 3
  br i1 %cmp.i.i10, label %if.then.i.i16, label %if.then4.i.i13

if.then.i.i16:                                    ; preds = %if.else
  %call3.i.i17 = tail call noundef nonnull align 8 dereferenceable(36) ptr @_ZN4llvh11raw_ostream5writeEPKcm(ptr noundef nonnull align 8 dereferenceable(36) %OS, ptr noundef nonnull @.str.1, i64 noundef 3) #18
  br label %_ZN4llvh11raw_ostreamlsEPKc.exit18

if.then4.i.i13:                                   ; preds = %if.else
  tail call void @llvm.memcpy.p0.p0.i64(ptr noundef nonnull align 1 dereferenceable(3) %2, ptr noundef nonnull align 1 dereferenceable(3) @.str.1, i64 3, i1 false)
  %4 = load ptr, ptr %OutBufCur.i6.i, align 8
  %add.ptr.i.i14 = getelementptr inbounds i8, ptr %4, i64 3
  store ptr %add.ptr.i.i14, ptr %OutBufCur.i6.i, align 8
  br label %_ZN4llvh11raw_ostreamlsEPKc.exit18

_ZN4llvh11raw_ostreamlsEPKc.exit18:               ; preds = %if.then.i.i16, %if.then4.i.i13
  %phi.call.i15 = phi ptr [ %call3.i.i17, %if.then.i.i16 ], [ %OS, %if.then4.i.i13 ]
  %5 = load i32, ptr %reg, align 4
  %conv.i = zext i32 %5 to i64
  %call.i = tail call noundef nonnull align 8 dereferenceable(36) ptr @_ZN4llvh11raw_ostreamlsEm(ptr noundef nonnull align 8 dereferenceable(36) %phi.call.i15, i64 noundef %conv.i) #18
  br label %if.end

if.end:                                           ; preds = %if.then4.i.i, %if.then.i.i, %_ZN4llvh11raw_ostreamlsEPKc.exit18
  ret ptr %OS
}